(dp0
Vusers
p1
(dp2
Vpath
p3
V/users
p4
sVis_deleted
p5
I00
sVname
p6
Vusers
p7
ss.(dp0
Vusers2
p1
(dp2
Vpath
p3
V/users
p4
sVis_deleted
p5
I00
sVname
p6
Vusers2
p7
ss.(dp0
Vusers
p1
(dp2
Vis_deleted
p3
I01
ss.(dp0
Vusers2
p1
(dp2
Vis_deleted
p3
I01
ss.(dp0
VMy_Desktop
p1
(dp2
Vpath
p3
V/users/haykbaghdasaryan/Desktop
p4
sVis_deleted
p5
I00
sVname
p6
VMy Desktop
p7
ss.(dp0
VScreens
p1
(dp2
Vpath
p3
V/users/haykbaghdasaryan/Documents/screenshots
p4
sVis_deleted
p5
I00
sVname
p6
VScreens
p7
ss.(dp0
VMy_Docs
p1
(dp2
Vpath
p3
V/users/haykbaghdasaryan/Documents/
p4
sVis_deleted
p5
I00
sVname
p6
VMy Docs
p7
ss.(dp0
VUsers
p1
(dp2
Vpath
p3
V/users/
p4
sVis_deleted
p5
I00
sVname
p6
VUsers
p7
ss.(dp0
VUsers
p1
(dp2
Vis_deleted
p3
I01
ss.(dp0
VMy_Desktop
p1
(dp2
Vis_deleted
p3
I01
ss.(dp0
VScreens
p1
(dp2
Vis_deleted
p3
I01
ss.(dp0
VScreenshots
p1
(dp2
Vpath
p3
V/users/haykbaghdasaryan/Documents/screenshots
p4
sVis_deleted
p5
I00
sVname
p6
VScreenshots
p7
ss.(dp0
VDesktop
p1
(dp2
Vpath
p3
V/users/haykbaghdasaryan/Desktop
p4
sVis_deleted
p5
I00
sVname
p6
VDesktop
p7
ss.(dp0
Vjson_test
p1
(dp2
Vpath
p3
V/users/haykbaghdasaryan/Documents/json_test
p4
sVis_deleted
p5
I00
sVname
p6
Vjson test
p7
ss.(dp0
Vusers
p1
(dp2
Vpath
p3
V/users
p4
sVis_deleted
p5
I00
sVname
p6
Vusers
p7
ss.