(dp0
VMy_desk
p1
(dp2
Vpath
p3
V/users/haykbaghdasaryan/Desktop
p4
sVis_deleted
p5
I00
sVname
p6
VMy desk
p7
ss.(dp0
VMy_desk
p1
(dp2
Vpath
p3
V/users/haykbaghdasaryan/Desktop
p4
sVis_deleted
p5
I00
sVname
p6
VMy desk
p7
ss.(dp0
VMy_desk
p1
(dp2
Vpath
p3
V/users/haykbaghdasaryan/Documents
p4
sVis_deleted
p5
I00
sVname
p6
VMy desk
p7
ss.(dp0
Vname
p1
(dp2
Vpath
p3
V/users
p4
sVis_deleted
p5
I00
sVname
p6
Vname
p7
ss.(dp0
Vname
p1
(dp2
Vpath
p3
V/users
p4
sVis_deleted
p5
I00
sVname
p6
Vname
p7
ss.(dp0
Vusers
p1
(dp2
Vpath
p3
V/users
p4
sVis_deleted
p5
I00
sVname
p6
Vusers
p7
ss.(dp0
Vusers
p1
(dp2
Vis_deleted
p3
I01
ss.(dp0
Vusers
p1
(dp2
Vpath
p3
V/users
p4
sVis_deleted
p5
I00
sVname
p6
Vusers
p7
ss.(dp0
Vusers
p1
(dp2
Vpath
p3
V/users
p4
sVis_deleted
p5
I00
sVname
p6
Vusers
p7
ss.(dp0
Vusers
p1
(dp2
Vpath
p3
V/users
p4
sVis_deleted
p5
I00
sVname
p6
Vusers
p7
ss.(dp0
Vusers
p1
(dp2
Vpath
p3
V/users
p4
sVis_deleted
p5
I00
sVname
p6
Vusers
p7
ss.(dp0
Vusers
p1
(dp2
Vpath
p3
V/users
p4
sVis_deleted
p5
I00
sVname
p6
Vusers
p7
ss.(dp0
Vusers23
p1
(dp2
Vpath
p3
V/users
p4
sVis_deleted
p5
I00
sVname
p6
Vusers23
p7
ss.(dp0
Vusers
p1
(dp2
Vis_deleted
p3
I01
ss.(dp0
Vname
p1
(dp2
Vis_deleted
p3
I01
ss.(dp0
Vusers23
p1
(dp2
Vis_deleted
p3
I01
ss.(dp0
Vusers
p1
(dp2
Vpath
p3
V/users
p4
sVis_deleted
p5
I00
sVname
p6
Vusers
p7
ss.(dp0
Vusers
p1
(dp2
Vis_deleted
p3
I01
ss.(dp0
Vusers
p1
(dp2
Vpath
p3
V/users
p4
sVis_deleted
p5
I00
sVname
p6
Vusers
p7
ss.(dp0
Vusers
p1
(dp2
Vpath
p3
V/users
p4
sVis_deleted
p5
I00
sVname
p6
Vusers
p7
ss.(dp0
Veverybod
p1
(dp2
Vpath
p3
V/users/
p4
sVis_deleted
p5
I00
sVname
p6
Veverybod
p7
ss.(dp0
Veverybod
p1
(dp2
Vis_deleted
p3
I01
ss.