(dp0
Vusers
p1
(dp2
Vpath
p3
V/users
p4
sVis_deleted
p5
I00
sVname
p6
Vusers
p7
ss.(dp0
Vusers2
p1
(dp2
Vpath
p3
V/users
p4
sVis_deleted
p5
I00
sVname
p6
Vusers2
p7
ss.(dp0
Vusers
p1
(dp2
Vis_deleted
p3
I01
ss.(dp0
Vusers2
p1
(dp2
Vis_deleted
p3
I01
ss.(dp0
VMy_Desktop
p1
(dp2
Vpath
p3
V/users/haykbaghdasaryan/Desktop
p4
sVis_deleted
p5
I00
sVname
p6
VMy Desktop
p7
ss.