(dp0
VMy_Docs
p1
(dp2
Vpath
p3
V/users/haykbaghdasaryan/Documents
p4
sVname
p5
VMy Docs
p6
ss.(dp0
VMy_test
p1
(dp2
Vpath
p3
V/users/haykbaghdasaryan/Documents
p4
sVname
p5
VMy test
p6
ss.(dp0
Vscreenshots
p1
(dp2
Vpath
p3
V/users/haykbaghdasaryan/documents/screenshots
p4
sVname
p5
Vscreenshots
p6
ss.(dp0
Vtest_
p1
(dp2
Vpath
p3
V/users/haykbaghdasaryan/Documents/screenshots
p4
sVname
p5
Vtest 
p6
ss.(dp0
Vtest_ape
p1
(dp2
Vpath
p3
V/users/haykbaghdasaryan/Documents
p4
sVname
p5
Vtest ape
p6
ss.